target datalayout = "e-m:e-p270:32:32-p271:32:32-p272:64:64-i64:64-i128:128-f80:128-n8:16:32:64-S128"
target triple = "x86_64-pc-linux-gnu"

@method_pkt_split_dgram = internal global ptr null, align 8
@.str = private unnamed_addr constant [33 x i8] c"Packet splitting datagram filter\00", align 1

; Function Attrs: nounwind uwtable
define dso_local ptr @bio_f_pkt_split_dgram_filter() #0 {
  %1 = alloca ptr, align 8
  %2 = load ptr, ptr @method_pkt_split_dgram, align 8, !tbaa !4
  %3 = icmp eq ptr %2, null
  br i1 %3, label %4, label %22

4:                                                ; preds = %0
  %5 = call ptr @BIO_meth_new(i32 noundef 641, ptr noundef @.str)
  store ptr %5, ptr @method_pkt_split_dgram, align 8, !tbaa !4
  %6 = load ptr, ptr @method_pkt_split_dgram, align 8, !tbaa !4
  %7 = icmp eq ptr %6, null
  br i1 %7, label %20, label %8

8:                                                ; preds = %4
  %9 = load ptr, ptr @method_pkt_split_dgram, align 8, !tbaa !4
  %10 = call i32 @BIO_meth_set_ctrl(ptr noundef %9, ptr noundef @pkt_split_dgram_ctrl)
  %11 = icmp ne i32 %10, 0
  br i1 %11, label %12, label %20

12:                                               ; preds = %8
  %13 = load ptr, ptr @method_pkt_split_dgram, align 8, !tbaa !4
  %14 = call i32 @BIO_meth_set_sendmmsg(ptr noundef %13, ptr noundef @pkt_split_dgram_sendmmsg)
  %15 = icmp ne i32 %14, 0
  br i1 %15, label %16, label %20

16:                                               ; preds = %12
  %17 = load ptr, ptr @method_pkt_split_dgram, align 8, !tbaa !4
  %18 = call i32 @BIO_meth_set_recvmmsg(ptr noundef %17, ptr noundef @pkt_split_dgram_recvmmsg)
  %19 = icmp ne i32 %18, 0
  br i1 %19, label %21, label %20

20:                                               ; preds = %16, %12, %8, %4
  store ptr null, ptr %1, align 8
  br label %24

21:                                               ; preds = %16
  br label %22

22:                                               ; preds = %21, %0
  %23 = load ptr, ptr @method_pkt_split_dgram, align 8, !tbaa !4
  store ptr %23, ptr %1, align 8
  br label %24

24:                                               ; preds = %22, %20
  %25 = load ptr, ptr %1, align 8
  ret ptr %25
}