; Function Attrs: nounwind uwtable
define dso_local ptr @bio_f_pkt_split_dgram_filter() local_unnamed_addr #0 {
  %1 = load ptr, ptr @method_pkt_split_dgram, align 8, !tbaa !4
  %2 = icmp eq ptr %1, null
  br i1 %2, label %3, label %._crit_edge

3:                                                ; preds = %0
  %4 = tail call ptr @BIO_meth_new(i32 noundef 641, ptr noundef nonnull @.str) #4
  store ptr %4, ptr @method_pkt_split_dgram, align 8, !tbaa !4
  %5 = icmp eq ptr %4, null
  br i1 %5, label %._crit_edge, label %6

6:                                                ; preds = %3
  %7 = tail call i32 @BIO_meth_set_ctrl(ptr noundef nonnull %4, ptr noundef nonnull @pkt_split_dgram_ctrl) #4
  %.not = icmp eq i32 %7, 0
  br i1 %.not, label %._crit_edge, label %8

8:                                                ; preds = %6
  %9 = load ptr, ptr @method_pkt_split_dgram, align 8, !tbaa !4
  %10 = tail call i32 @BIO_meth_set_sendmmsg(ptr noundef %9, ptr noundef nonnull @pkt_split_dgram_sendmmsg) #4
  %.not2 = icmp eq i32 %10, 0
  br i1 %.not2, label %._crit_edge, label %11

11:                                               ; preds = %8
  %12 = load ptr, ptr @method_pkt_split_dgram, align 8, !tbaa !4
  %13 = tail call i32 @BIO_meth_set_recvmmsg(ptr noundef %12, ptr noundef nonnull @pkt_split_dgram_recvmmsg) #4
  %.not3 = icmp eq i32 %13, 0
  %.pre = load ptr, ptr @method_pkt_split_dgram, align 8
  %spec.select = select i1 %.not3, ptr null, ptr %.pre
  br label %._crit_edge

._crit_edge:                                      ; preds = %11, %0, %3, %6, %8
  %.0 = phi ptr [ null, %8 ], [ null, %6 ], [ null, %3 ], [ %1, %0 ], [ %spec.select, %11 ]
  ret ptr %.0
}